target datalayout = "e-m:e-p270:32:32-p271:32:32-p272:64:64-i64:64-i128:128-f80:128-n8:16:32:64-S128"
target triple = "x86_64-pc-linux-gnu"

%union.cmsInterpFunction = type { ptr }
%struct._cms_interp_struc = type { ptr, i32, i32, i32, [15 x i32], [15 x i32], [15 x i32], ptr, %union.cmsInterpFunction }

; Function Attrs: nounwind uwtable
define internal zeroext i16 @LinearInterp(i32 noundef %0, i32 noundef %1, i32 noundef %2) #0 {
  %4 = alloca i32, align 4
  %5 = alloca i32, align 4
  %6 = alloca i32, align 4
  %7 = alloca i32, align 4
  store i32 %0, ptr %4, align 4
  store i32 %1, ptr %5, align 4
  store i32 %2, ptr %6, align 4
  %8 = load i32, ptr %6, align 4
  %9 = load i32, ptr %5, align 4
  %10 = sub nsw i32 %8, %9
  %11 = load i32, ptr %4, align 4
  %12 = mul i32 %10, %11
  %13 = add i32 %12, 32768
  store i32 %13, ptr %7, align 4
  %14 = load i32, ptr %7, align 4
  %15 = lshr i32 %14, 16
  %16 = load i32, ptr %5, align 4
  %17 = add i32 %15, %16
  store i32 %17, ptr %7, align 4
  %18 = load i32, ptr %7, align 4
  %19 = trunc i32 %18 to i16
  ret i16 %19
}

; Function Attrs: nounwind uwtable
define internal void @Eval7Inputs(ptr noundef %0, ptr noundef %1, ptr noundef %2) #0 {
  %4 = alloca ptr, align 8
  %5 = alloca ptr, align 8
  %6 = alloca ptr, align 8
  %7 = alloca ptr, align 8
  %8 = alloca i32, align 4
  %9 = alloca i32, align 4
  %10 = alloca i32, align 4
  %11 = alloca i32, align 4
  %12 = alloca i32, align 4
  %13 = alloca ptr, align 8
  %14 = alloca i32, align 4
  %15 = alloca [128 x i16], align 16
  %16 = alloca [128 x i16], align 16
  %17 = alloca %struct._cms_interp_struc, align 8
  store ptr %0, ptr %4, align 8
  store ptr %1, ptr %5, align 8
  store ptr %2, ptr %6, align 8
  %18 = load ptr, ptr %6, align 8
  %19 = getelementptr inbounds %struct._cms_interp_struc, ptr %18, i32 0, i32 7
  %20 = load ptr, ptr %19, align 8
  store ptr %20, ptr %7, align 8
  %21 = load ptr, ptr %4, align 8
  %22 = getelementptr inbounds i16, ptr %21, i64 0
  %23 = load i16, ptr %22, align 2
  %24 = zext i16 %23 to i32
  %25 = load ptr, ptr %6, align 8
  %26 = getelementptr inbounds %struct._cms_interp_struc, ptr %25, i32 0, i32 5
  %27 = getelementptr inbounds [15 x i32], ptr %26, i64 0, i64 0
  %28 = load i32, ptr %27, align 8
  %29 = mul i32 %24, %28
  %30 = call i32 @_cmsToFixedDomain(i32 noundef %29)
  store i32 %30, ptr %8, align 4
  %31 = load i32, ptr %8, align 4
  %32 = ashr i32 %31, 16
  store i32 %32, ptr %9, align 4
  %33 = load i32, ptr %8, align 4
  %34 = and i32 %33, 65535
  store i32 %34, ptr %10, align 4
  %35 = load ptr, ptr %6, align 8
  %36 = getelementptr inbounds %struct._cms_interp_struc, ptr %35, i32 0, i32 6
  %37 = getelementptr inbounds [15 x i32], ptr %36, i64 0, i64 6
  %38 = load i32, ptr %37, align 4
  %39 = load i32, ptr %9, align 4
  %40 = mul i32 %38, %39
  store i32 %40, ptr %11, align 4
  %41 = load ptr, ptr %6, align 8
  %42 = getelementptr inbounds %struct._cms_interp_struc, ptr %41, i32 0, i32 6
  %43 = getelementptr inbounds [15 x i32], ptr %42, i64 0, i64 6
  %44 = load i32, ptr %43, align 4
  %45 = load i32, ptr %9, align 4
  %46 = load ptr, ptr %4, align 8
  %47 = getelementptr inbounds i16, ptr %46, i64 0
  %48 = load i16, ptr %47, align 2
  %49 = zext i16 %48 to i32
  %50 = icmp ne i32 %49, 65535
  %51 = select i1 %50, i32 1, i32 0
  %52 = add nsw i32 %45, %51
  %53 = mul i32 %44, %52
  store i32 %53, ptr %12, align 4
  %54 = load ptr, ptr %6, align 8
  call void @llvm.memcpy.p0.p0.i64(ptr align 8 %17, ptr align 8 %54, i64 216, i1 false)
  %55 = getelementptr inbounds %struct._cms_interp_struc, ptr %17, i32 0, i32 5
  %56 = getelementptr inbounds [15 x i32], ptr %55, i64 0, i64 0
  %57 = load ptr, ptr %6, align 8
  %58 = getelementptr inbounds %struct._cms_interp_struc, ptr %57, i32 0, i32 5
  %59 = getelementptr inbounds [15 x i32], ptr %58, i64 0, i64 1
  call void @llvm.memmove.p0.p0.i64(ptr align 8 %56, ptr align 4 %59, i64 24, i1 false)
  %60 = load ptr, ptr %7, align 8
  %61 = load i32, ptr %11, align 4
  %62 = sext i32 %61 to i64
  %63 = getelementptr inbounds i16, ptr %60, i64 %62
  store ptr %63, ptr %13, align 8
  %64 = load ptr, ptr %13, align 8
  %65 = getelementptr inbounds %struct._cms_interp_struc, ptr %17, i32 0, i32 7
  store ptr %64, ptr %65, align 8
  %66 = load ptr, ptr %4, align 8
  %67 = getelementptr inbounds i16, ptr %66, i64 1
  %68 = getelementptr inbounds [128 x i16], ptr %15, i64 0, i64 0
  call void @Eval6Inputs(ptr noundef %67, ptr noundef %68, ptr noundef %17)
  %69 = load ptr, ptr %7, align 8
  %70 = load i32, ptr %12, align 4
  %71 = sext i32 %70 to i64
  %72 = getelementptr inbounds i16, ptr %69, i64 %71
  store ptr %72, ptr %13, align 8
  %73 = load ptr, ptr %13, align 8
  %74 = getelementptr inbounds %struct._cms_interp_struc, ptr %17, i32 0, i32 7
  store ptr %73, ptr %74, align 8
  %75 = load ptr, ptr %4, align 8
  %76 = getelementptr inbounds i16, ptr %75, i64 1
  %77 = getelementptr inbounds [128 x i16], ptr %16, i64 0, i64 0
  call void @Eval6Inputs(ptr noundef %76, ptr noundef %77, ptr noundef %17)
  store i32 0, ptr %14, align 4
  br label %78

78:                                               ; preds = %101, %3
  %79 = load i32, ptr %14, align 4
  %80 = load ptr, ptr %6, align 8
  %81 = getelementptr inbounds %struct._cms_interp_struc, ptr %80, i32 0, i32 3
  %82 = load i32, ptr %81, align 8
  %83 = icmp ult i32 %79, %82
  br i1 %83, label %84, label %104

84:                                               ; preds = %78
  %85 = load i32, ptr %10, align 4
  %86 = load i32, ptr %14, align 4
  %87 = zext i32 %86 to i64
  %88 = getelementptr inbounds [128 x i16], ptr %15, i64 0, i64 %87
  %89 = load i16, ptr %88, align 2
  %90 = zext i16 %89 to i32
  %91 = load i32, ptr %14, align 4
  %92 = zext i32 %91 to i64
  %93 = getelementptr inbounds [128 x i16], ptr %16, i64 0, i64 %92
  %94 = load i16, ptr %93, align 2
  %95 = zext i16 %94 to i32
  %96 = call zeroext i16 @LinearInterp(i32 noundef %85, i32 noundef %90, i32 noundef %95)
  %97 = load ptr, ptr %5, align 8
  %98 = load i32, ptr %14, align 4
  %99 = zext i32 %98 to i64
  %100 = getelementptr inbounds i16, ptr %97, i64 %99
  store i16 %96, ptr %100, align 2
  br label %101

101:                                              ; preds = %84
  %102 = load i32, ptr %14, align 4
  %103 = add i32 %102, 1
  store i32 %103, ptr %14, align 4
  br label %78, !llvm.loop !34

104:                                              ; preds = %78
  ret void
}

; Function Attrs: nounwind uwtable
define internal i32 @_cmsToFixedDomain(i32 noundef %0) #0 {
  %2 = alloca i32, align 4
  store i32 %0, ptr %2, align 4
  %3 = load i32, ptr %2, align 4
  %4 = load i32, ptr %2, align 4
  %5 = add nsw i32 %4, 32767
  %6 = sdiv i32 %5, 65535
  %7 = add nsw i32 %3, %6
  ret i32 %7
}

; Function Attrs: nounwind uwtable
define internal void @Eval8Inputs(ptr noundef %0, ptr noundef %1, ptr noundef %2) #0 {
  %4 = alloca ptr, align 8
  %5 = alloca ptr, align 8
  %6 = alloca ptr, align 8
  %7 = alloca ptr, align 8
  %8 = alloca i32, align 4
  %9 = alloca i32, align 4
  %10 = alloca i32, align 4
  %11 = alloca i32, align 4
  %12 = alloca i32, align 4
  %13 = alloca ptr, align 8
  %14 = alloca i32, align 4
  %15 = alloca [128 x i16], align 16
  %16 = alloca [128 x i16], align 16
  %17 = alloca %struct._cms_interp_struc, align 8
  store ptr %0, ptr %4, align 8
  store ptr %1, ptr %5, align 8
  store ptr %2, ptr %6, align 8
  %18 = load ptr, ptr %6, align 8
  %19 = getelementptr inbounds %struct._cms_interp_struc, ptr %18, i32 0, i32 7
  %20 = load ptr, ptr %19, align 8
  store ptr %20, ptr %7, align 8
  %21 = load ptr, ptr %4, align 8
  %22 = getelementptr inbounds i16, ptr %21, i64 0
  %23 = load i16, ptr %22, align 2
  %24 = zext i16 %23 to i32
  %25 = load ptr, ptr %6, align 8
  %26 = getelementptr inbounds %struct._cms_interp_struc, ptr %25, i32 0, i32 5
  %27 = getelementptr inbounds [15 x i32], ptr %26, i64 0, i64 0
  %28 = load i32, ptr %27, align 8
  %29 = mul i32 %24, %28
  %30 = call i32 @_cmsToFixedDomain(i32 noundef %29)
  store i32 %30, ptr %8, align 4
  %31 = load i32, ptr %8, align 4
  %32 = ashr i32 %31, 16
  store i32 %32, ptr %9, align 4
  %33 = load i32, ptr %8, align 4
  %34 = and i32 %33, 65535
  store i32 %34, ptr %10, align 4
  %35 = load ptr, ptr %6, align 8
  %36 = getelementptr inbounds %struct._cms_interp_struc, ptr %35, i32 0, i32 6
  %37 = getelementptr inbounds [15 x i32], ptr %36, i64 0, i64 7
  %38 = load i32, ptr %37, align 4
  %39 = load i32, ptr %9, align 4
  %40 = mul i32 %38, %39
  store i32 %40, ptr %11, align 4
  %41 = load ptr, ptr %6, align 8
  %42 = getelementptr inbounds %struct._cms_interp_struc, ptr %41, i32 0, i32 6
  %43 = getelementptr inbounds [15 x i32], ptr %42, i64 0, i64 7
  %44 = load i32, ptr %43, align 4
  %45 = load i32, ptr %9, align 4
  %46 = load ptr, ptr %4, align 8
  %47 = getelementptr inbounds i16, ptr %46, i64 0
  %48 = load i16, ptr %47, align 2
  %49 = zext i16 %48 to i32
  %50 = icmp ne i32 %49, 65535
  %51 = select i1 %50, i32 1, i32 0
  %52 = add nsw i32 %45, %51
  %53 = mul i32 %44, %52
  store i32 %53, ptr %12, align 4
  %54 = load ptr, ptr %6, align 8
  call void @llvm.memcpy.p0.p0.i64(ptr align 8 %17, ptr align 8 %54, i64 216, i1 false)
  %55 = getelementptr inbounds %struct._cms_interp_struc, ptr %17, i32 0, i32 5
  %56 = getelementptr inbounds [15 x i32], ptr %55, i64 0, i64 0
  %57 = load ptr, ptr %6, align 8
  %58 = getelementptr inbounds %struct._cms_interp_struc, ptr %57, i32 0, i32 5
  %59 = getelementptr inbounds [15 x i32], ptr %58, i64 0, i64 1
  call void @llvm.memmove.p0.p0.i64(ptr align 8 %56, ptr align 4 %59, i64 28, i1 false)
  %60 = load ptr, ptr %7, align 8
  %61 = load i32, ptr %11, align 4
  %62 = sext i32 %61 to i64
  %63 = getelementptr inbounds i16, ptr %60, i64 %62
  store ptr %63, ptr %13, align 8
  %64 = load ptr, ptr %13, align 8
  %65 = getelementptr inbounds %struct._cms_interp_struc, ptr %17, i32 0, i32 7
  store ptr %64, ptr %65, align 8
  %66 = load ptr, ptr %4, align 8
  %67 = getelementptr inbounds i16, ptr %66, i64 1
  %68 = getelementptr inbounds [128 x i16], ptr %15, i64 0, i64 0
  call void @Eval7Inputs(ptr noundef %67, ptr noundef %68, ptr noundef %17)
  %69 = load ptr, ptr %7, align 8
  %70 = load i32, ptr %12, align 4
  %71 = sext i32 %70 to i64
  %72 = getelementptr inbounds i16, ptr %69, i64 %71
  store ptr %72, ptr %13, align 8
  %73 = load ptr, ptr %13, align 8
  %74 = getelementptr inbounds %struct._cms_interp_struc, ptr %17, i32 0, i32 7
  store ptr %73, ptr %74, align 8
  %75 = load ptr, ptr %4, align 8
  %76 = getelementptr inbounds i16, ptr %75, i64 1
  %77 = getelementptr inbounds [128 x i16], ptr %16, i64 0, i64 0
  call void @Eval7Inputs(ptr noundef %76, ptr noundef %77, ptr noundef %17)
  store i32 0, ptr %14, align 4
  br label %78

78:                                               ; preds = %101, %3
  %79 = load i32, ptr %14, align 4
  %80 = load ptr, ptr %6, align 8
  %81 = getelementptr inbounds %struct._cms_interp_struc, ptr %80, i32 0, i32 3
  %82 = load i32, ptr %81, align 8
  %83 = icmp ult i32 %79, %82
  br i1 %83, label %84, label %104

84:                                               ; preds = %78
  %85 = load i32, ptr %10, align 4
  %86 = load i32, ptr %14, align 4
  %87 = zext i32 %86 to i64
  %88 = getelementptr inbounds [128 x i16], ptr %15, i64 0, i64 %87
  %89 = load i16, ptr %88, align 2
  %90 = zext i16 %89 to i32
  %91 = load i32, ptr %14, align 4
  %92 = zext i32 %91 to i64
  %93 = getelementptr inbounds [128 x i16], ptr %16, i64 0, i64 %92
  %94 = load i16, ptr %93, align 2
  %95 = zext i16 %94 to i32
  %96 = call zeroext i16 @LinearInterp(i32 noundef %85, i32 noundef %90, i32 noundef %95)
  %97 = load ptr, ptr %5, align 8
  %98 = load i32, ptr %14, align 4
  %99 = zext i32 %98 to i64
  %100 = getelementptr inbounds i16, ptr %97, i64 %99
  store i16 %96, ptr %100, align 2
  br label %101

101:                                              ; preds = %84
  %102 = load i32, ptr %14, align 4
  %103 = add i32 %102, 1
  store i32 %103, ptr %14, align 4
  br label %78, !llvm.loop !36

104:                                              ; preds = %78
  ret void
}