; Function Attrs: nofree norecurse nosync nounwind memory(read, argmem: readwrite, inaccessiblemem: none) uwtable
define internal void @Eval8Inputs(ptr nocapture noundef readonly %0, ptr nocapture noundef writeonly %1, ptr nocapture noundef readonly %2) #4 {
  %4 = alloca [128 x i16], align 16
  %5 = alloca [128 x i16], align 16
  %6 = alloca %struct._cms_interp_struc, align 8
  %7 = alloca [128 x i16], align 16
  %8 = alloca [128 x i16], align 16
  %9 = alloca %struct._cms_interp_struc, align 8
  %10 = alloca [128 x i16], align 16
  %11 = alloca [128 x i16], align 16
  %12 = getelementptr inbounds i8, ptr %2, i64 200
  %13 = load ptr, ptr %12, align 8
  %14 = load i16, ptr %0, align 2
  %15 = zext i16 %14 to i32
  %16 = getelementptr inbounds i8, ptr %2, i64 80
  %17 = load i32, ptr %16, align 8
  %18 = mul i32 %17, %15
  %19 = add nsw i32 %18, 32767
  %20 = sdiv i32 %19, 65535
  %21 = add nsw i32 %20, %18
  %22 = ashr i32 %21, 16
  %23 = and i32 %21, 65535
  %24 = getelementptr inbounds i8, ptr %2, i64 168
  %25 = load i32, ptr %24, align 4
  %26 = mul i32 %22, %25
  %.not = icmp ne i16 %14, -1
  %27 = zext i1 %.not to i32
  %28 = add nsw i32 %22, %27
  %29 = mul i32 %28, %25
  %.sroa.3.0..sroa_idx = getelementptr inbounds i8, ptr %2, i64 16
  %.sroa.3.0.copyload = load i32, ptr %.sroa.3.0..sroa_idx, align 8
  %.sroa.7.0..sroa_idx = getelementptr inbounds i8, ptr %2, i64 20
  %.sroa.10.0..sroa_idx = getelementptr inbounds i8, ptr %2, i64 84
  %.sroa.12.0..sroa_idx = getelementptr inbounds i8, ptr %2, i64 108
  %.sroa.1252.0..sroa_idx = getelementptr inbounds i8, ptr %2, i64 164
  %.sroa.1252.0.copyload = load i32, ptr %.sroa.1252.0..sroa_idx, align 4
  %.sroa.18.0..sroa_idx = getelementptr inbounds i8, ptr %2, i64 208
  %.sroa.18.0.copyload = load ptr, ptr %.sroa.18.0..sroa_idx, align 8
  %.sroa.742.80.copyload = load i32, ptr %.sroa.10.0..sroa_idx, align 4
  %.sroa.10.80..sroa_idx = getelementptr inbounds i8, ptr %2, i64 88
  %30 = sext i32 %26 to i64
  %31 = getelementptr inbounds i16, ptr %13, i64 %30
  %32 = getelementptr inbounds i8, ptr %0, i64 2
  call void @llvm.lifetime.start.p0(i64 256, ptr nonnull %7)
  call void @llvm.lifetime.start.p0(i64 256, ptr nonnull %8)
  call void @llvm.lifetime.start.p0(i64 216, ptr nonnull %9)
  %33 = load i16, ptr %32, align 2
  %34 = zext i16 %33 to i32
  %35 = mul i32 %.sroa.742.80.copyload, %34
  %36 = add nsw i32 %35, 32767
  %37 = sdiv i32 %36, 65535
  %38 = add nsw i32 %37, %35
  %39 = ashr i32 %38, 16
  %40 = and i32 %38, 65535
  %41 = mul i32 %39, %.sroa.1252.0.copyload
  %.not.i = icmp ne i16 %33, -1
  %42 = zext i1 %.not.i to i32
  %43 = add nsw i32 %39, %42
  %44 = mul i32 %43, %.sroa.1252.0.copyload
  call void @llvm.memcpy.p0.p0.i64(ptr noundef nonnull align 8 dereferenceable(16) %9, ptr noundef nonnull align 8 dereferenceable(16) %2, i64 16, i1 false)
  %.sroa.3.0..sroa_idx33 = getelementptr inbounds i8, ptr %9, i64 16
  store i32 %.sroa.3.0.copyload, ptr %.sroa.3.0..sroa_idx33, align 8
  %.sroa.7.0..sroa_idx40 = getelementptr inbounds i8, ptr %9, i64 20
  call void @llvm.memcpy.p0.p0.i64(ptr noundef nonnull align 4 dereferenceable(60) %.sroa.7.0..sroa_idx40, ptr noundef nonnull align 4 dereferenceable(60) %.sroa.7.0..sroa_idx, i64 60, i1 false)
  %.sroa.742.0..sroa_idx43 = getelementptr inbounds i8, ptr %9, i64 80
  %.sroa.10.0..sroa_idx48 = getelementptr inbounds i8, ptr %9, i64 84
  call void @llvm.memcpy.p0.p0.i64(ptr noundef nonnull align 4 dereferenceable(24) %.sroa.10.0..sroa_idx48, ptr noundef nonnull align 4 dereferenceable(24) %.sroa.10.80..sroa_idx, i64 24, i1 false)
  %.sroa.12.0..sroa_idx50 = getelementptr inbounds i8, ptr %9, i64 108
  call void @llvm.memcpy.p0.p0.i64(ptr noundef nonnull align 4 dereferenceable(56) %.sroa.12.0..sroa_idx50, ptr noundef nonnull align 4 dereferenceable(56) %.sroa.12.0..sroa_idx, i64 56, i1 false)
  %.sroa.1252.0..sroa_idx53 = getelementptr inbounds i8, ptr %9, i64 164
  store i32 %.sroa.1252.0.copyload, ptr %.sroa.1252.0..sroa_idx53, align 4
  %.sroa.14.0..sroa_idx58 = getelementptr inbounds i8, ptr %9, i64 168
  call void @llvm.memcpy.p0.p0.i64(ptr noundef nonnull align 8 dereferenceable(32) %.sroa.14.0..sroa_idx58, ptr noundef nonnull align 8 dereferenceable(32) %24, i64 32, i1 false)
  %.sroa.1460.0..sroa_idx61 = getelementptr inbounds i8, ptr %9, i64 200
  %.sroa.18.0..sroa_idx66 = getelementptr inbounds i8, ptr %9, i64 208
  store ptr %.sroa.18.0.copyload, ptr %.sroa.18.0..sroa_idx66, align 8
  call void @llvm.memcpy.p0.p0.i64(ptr noundef nonnull align 8 dereferenceable(24) %.sroa.742.0..sroa_idx43, ptr noundef nonnull align 4 dereferenceable(24) %.sroa.10.80..sroa_idx, i64 24, i1 false)
  %45 = sext i32 %41 to i64
  %46 = getelementptr inbounds i16, ptr %31, i64 %45
  store ptr %46, ptr %.sroa.1460.0..sroa_idx61, align 8
  %47 = getelementptr inbounds i8, ptr %0, i64 4
  call void @Eval6Inputs(ptr noundef nonnull readonly %47, ptr noundef nonnull %7, ptr noundef nonnull %9)
  %48 = sext i32 %44 to i64
  %49 = getelementptr inbounds i16, ptr %31, i64 %48
  store ptr %49, ptr %.sroa.1460.0..sroa_idx61, align 8
  call void @Eval6Inputs(ptr noundef nonnull readonly %47, ptr noundef nonnull %8, ptr noundef nonnull %9)
  %.not28.i = icmp eq i32 %.sroa.3.0.copyload, 0
  br i1 %.not28.i, label %Eval7Inputs.exit, label %.lr.ph.i.preheader

.lr.ph.i.preheader:                               ; preds = %3
  %50 = zext i32 %.sroa.3.0.copyload to i64
  br label %.lr.ph.i

.lr.ph.i:                                         ; preds = %.lr.ph.i.preheader, %.lr.ph.i
  %indvars.iv.i = phi i64 [ %indvars.iv.next.i, %.lr.ph.i ], [ 0, %.lr.ph.i.preheader ]
  %51 = getelementptr inbounds [128 x i16], ptr %7, i64 0, i64 %indvars.iv.i
  %52 = load i16, ptr %51, align 2
  %53 = zext i16 %52 to i32
  %54 = getelementptr inbounds [128 x i16], ptr %8, i64 0, i64 %indvars.iv.i
  %55 = load i16, ptr %54, align 2
  %56 = zext i16 %55 to i32
  %57 = sub nsw i32 %56, %53
  %58 = mul i32 %57, %40
  %59 = add i32 %58, 32768
  %60 = lshr i32 %59, 16
  %61 = trunc nuw i32 %60 to i16
  %62 = add i16 %52, %61
  %63 = getelementptr inbounds i16, ptr %10, i64 %indvars.iv.i
  store i16 %62, ptr %63, align 2
  %indvars.iv.next.i = add nuw nsw i64 %indvars.iv.i, 1
  %exitcond.not = icmp eq i64 %indvars.iv.next.i, %50
  br i1 %exitcond.not, label %Eval7Inputs.exit, label %.lr.ph.i, !llvm.loop !34

Eval7Inputs.exit:                                 ; preds = %.lr.ph.i, %3
  call void @llvm.lifetime.end.p0(i64 256, ptr nonnull %7)
  call void @llvm.lifetime.end.p0(i64 256, ptr nonnull %8)
  call void @llvm.lifetime.end.p0(i64 216, ptr nonnull %9)
  %64 = sext i32 %29 to i64
  %65 = getelementptr inbounds i16, ptr %13, i64 %64
  call void @llvm.lifetime.start.p0(i64 256, ptr nonnull %4)
  call void @llvm.lifetime.start.p0(i64 256, ptr nonnull %5)
  call void @llvm.lifetime.start.p0(i64 216, ptr nonnull %6)
  call void @llvm.memcpy.p0.p0.i64(ptr noundef nonnull align 8 dereferenceable(16) %6, ptr noundef nonnull align 8 dereferenceable(16) %2, i64 16, i1 false)
  %.sroa.3.0..sroa_idx35 = getelementptr inbounds i8, ptr %6, i64 16
  store i32 %.sroa.3.0.copyload, ptr %.sroa.3.0..sroa_idx35, align 8
  %.sroa.7.0..sroa_idx41 = getelementptr inbounds i8, ptr %6, i64 20
  call void @llvm.memcpy.p0.p0.i64(ptr noundef nonnull align 4 dereferenceable(60) %.sroa.7.0..sroa_idx41, ptr noundef nonnull align 4 dereferenceable(60) %.sroa.7.0..sroa_idx, i64 60, i1 false)
  %.sroa.742.0..sroa_idx45 = getelementptr inbounds i8, ptr %6, i64 80
  %.sroa.10.0..sroa_idx49 = getelementptr inbounds i8, ptr %6, i64 84
  call void @llvm.memcpy.p0.p0.i64(ptr noundef nonnull align 4 dereferenceable(24) %.sroa.10.0..sroa_idx49, ptr noundef nonnull align 4 dereferenceable(24) %.sroa.10.80..sroa_idx, i64 24, i1 false)
  %.sroa.12.0..sroa_idx51 = getelementptr inbounds i8, ptr %6, i64 108
  call void @llvm.memcpy.p0.p0.i64(ptr noundef nonnull align 4 dereferenceable(56) %.sroa.12.0..sroa_idx51, ptr noundef nonnull align 4 dereferenceable(56) %.sroa.12.0..sroa_idx, i64 56, i1 false)
  %.sroa.1252.0..sroa_idx55 = getelementptr inbounds i8, ptr %6, i64 164
  store i32 %.sroa.1252.0.copyload, ptr %.sroa.1252.0..sroa_idx55, align 4
  %.sroa.14.0..sroa_idx59 = getelementptr inbounds i8, ptr %6, i64 168
  call void @llvm.memcpy.p0.p0.i64(ptr noundef nonnull align 8 dereferenceable(32) %.sroa.14.0..sroa_idx59, ptr noundef nonnull align 8 dereferenceable(32) %24, i64 32, i1 false)
  %.sroa.1460.0..sroa_idx63 = getelementptr inbounds i8, ptr %6, i64 200
  %.sroa.18.0..sroa_idx68 = getelementptr inbounds i8, ptr %6, i64 208
  store ptr %.sroa.18.0.copyload, ptr %.sroa.18.0..sroa_idx68, align 8
  call void @llvm.memcpy.p0.p0.i64(ptr noundef nonnull align 8 dereferenceable(24) %.sroa.742.0..sroa_idx45, ptr noundef nonnull align 4 dereferenceable(24) %.sroa.10.80..sroa_idx, i64 24, i1 false)
  %66 = getelementptr inbounds i16, ptr %65, i64 %45
  store ptr %66, ptr %.sroa.1460.0..sroa_idx63, align 8
  call void @Eval6Inputs(ptr noundef nonnull readonly %47, ptr noundef nonnull %4, ptr noundef nonnull %6)
  %67 = getelementptr inbounds i16, ptr %65, i64 %48
  store ptr %67, ptr %.sroa.1460.0..sroa_idx63, align 8
  call void @Eval6Inputs(ptr noundef nonnull readonly %47, ptr noundef nonnull %5, ptr noundef nonnull %6)
  br i1 %.not28.i, label %Eval7Inputs.exit32.thread, label %.lr.ph.i29.preheader

Eval7Inputs.exit32.thread:                        ; preds = %Eval7Inputs.exit
  call void @llvm.lifetime.end.p0(i64 256, ptr nonnull %4)
  call void @llvm.lifetime.end.p0(i64 256, ptr nonnull %5)
  call void @llvm.lifetime.end.p0(i64 216, ptr nonnull %6)
  br label %._crit_edge

.lr.ph.i29.preheader:                             ; preds = %Eval7Inputs.exit
  %68 = zext i32 %.sroa.3.0.copyload to i64
  br label %.lr.ph.i29

.lr.ph.i29:                                       ; preds = %.lr.ph.i29.preheader, %.lr.ph.i29
  %indvars.iv.i30 = phi i64 [ %indvars.iv.next.i31, %.lr.ph.i29 ], [ 0, %.lr.ph.i29.preheader ]
  %69 = getelementptr inbounds [128 x i16], ptr %4, i64 0, i64 %indvars.iv.i30
  %70 = load i16, ptr %69, align 2
  %71 = zext i16 %70 to i32
  %72 = getelementptr inbounds [128 x i16], ptr %5, i64 0, i64 %indvars.iv.i30
  %73 = load i16, ptr %72, align 2
  %74 = zext i16 %73 to i32
  %75 = sub nsw i32 %74, %71
  %76 = mul i32 %75, %40
  %77 = add i32 %76, 32768
  %78 = lshr i32 %77, 16
  %79 = trunc nuw i32 %78 to i16
  %80 = add i16 %70, %79
  %81 = getelementptr inbounds i16, ptr %11, i64 %indvars.iv.i30
  store i16 %80, ptr %81, align 2
  %indvars.iv.next.i31 = add nuw nsw i64 %indvars.iv.i30, 1
  %exitcond72.not = icmp eq i64 %indvars.iv.next.i31, %68
  br i1 %exitcond72.not, label %Eval7Inputs.exit32, label %.lr.ph.i29, !llvm.loop !34

Eval7Inputs.exit32:                               ; preds = %.lr.ph.i29
  call void @llvm.lifetime.end.p0(i64 256, ptr nonnull %4)
  call void @llvm.lifetime.end.p0(i64 256, ptr nonnull %5)
  call void @llvm.lifetime.end.p0(i64 216, ptr nonnull %6)
  br i1 %.not28.i, label %._crit_edge, label %.lr.ph

.lr.ph:                                           ; preds = %Eval7Inputs.exit32, %.lr.ph
  %indvars.iv = phi i64 [ %indvars.iv.next, %.lr.ph ], [ 0, %Eval7Inputs.exit32 ]
  %82 = getelementptr inbounds [128 x i16], ptr %10, i64 0, i64 %indvars.iv
  %83 = load i16, ptr %82, align 2
  %84 = zext i16 %83 to i32
  %85 = getelementptr inbounds [128 x i16], ptr %11, i64 0, i64 %indvars.iv
  %86 = load i16, ptr %85, align 2
  %87 = zext i16 %86 to i32
  %88 = sub nsw i32 %87, %84
  %89 = mul i32 %88, %23
  %90 = add i32 %89, 32768
  %91 = lshr i32 %90, 16
  %92 = trunc nuw i32 %91 to i16
  %93 = add i16 %83, %92
  %94 = getelementptr inbounds i16, ptr %1, i64 %indvars.iv
  store i16 %93, ptr %94, align 2
  %indvars.iv.next = add nuw nsw i64 %indvars.iv, 1
  %95 = load i32, ptr %.sroa.3.0..sroa_idx, align 8
  %96 = zext i32 %95 to i64
  %97 = icmp ult i64 %indvars.iv.next, %96
  br i1 %97, label %.lr.ph, label %._crit_edge, !llvm.loop !36

._crit_edge:                                      ; preds = %.lr.ph, %Eval7Inputs.exit32.thread, %Eval7Inputs.exit32
  ret void
}